; Function Attrs: mustprogress nounwind uwtable
define hidden void @_ZN3ue217ComponentSequenceD0Ev(ptr noundef nonnull align 8 dereferenceable(88) initializes((0, 8)) %0) unnamed_addr #2 align 2 personality ptr @__gxx_personality_v0 {
  store ptr getelementptr inbounds nuw inrange(-16, 144) (i8, ptr @_ZTVN3ue217ComponentSequenceE, i64 16), ptr %0, align 8
  %2 = getelementptr inbounds nuw i8, ptr %0, i64 56
  %3 = load ptr, ptr %2, align 8
  %4 = getelementptr inbounds nuw i8, ptr %0, i64 72
  %5 = icmp eq ptr %3, %4
  br i1 %5, label %_ZNKSt7__cxx1112basic_stringIcSt11char_traitsIcESaIcEE11_M_is_localEv.exit.thread.i.i.i, label %_ZNKSt7__cxx1112basic_stringIcSt11char_traitsIcESaIcEE11_M_is_localEv.exit.i.i.i

_ZNKSt7__cxx1112basic_stringIcSt11char_traitsIcESaIcEE11_M_is_localEv.exit.thread.i.i.i: ; preds = %1
  %6 = getelementptr inbounds nuw i8, ptr %0, i64 64
  %7 = load i64, ptr %6, align 8
  %8 = icmp ult i64 %7, 16
  tail call void @llvm.assume(i1 %8)
  br label %_ZNSt7__cxx1112basic_stringIcSt11char_traitsIcESaIcEED2Ev.exit.i

_ZNKSt7__cxx1112basic_stringIcSt11char_traitsIcESaIcEE11_M_is_localEv.exit.i.i.i: ; preds = %1
  tail call void @_ZdlPv(ptr noundef %3) #16
  br label %_ZNSt7__cxx1112basic_stringIcSt11char_traitsIcESaIcEED2Ev.exit.i

_ZNSt7__cxx1112basic_stringIcSt11char_traitsIcESaIcEED2Ev.exit.i: ; preds = %_ZNKSt7__cxx1112basic_stringIcSt11char_traitsIcESaIcEE11_M_is_localEv.exit.i.i.i, %_ZNKSt7__cxx1112basic_stringIcSt11char_traitsIcESaIcEE11_M_is_localEv.exit.thread.i.i.i
  %9 = getelementptr inbounds nuw i8, ptr %0, i64 40
  %10 = load ptr, ptr %9, align 8
  %.not.i.i = icmp eq ptr %10, null
  br i1 %.not.i.i, label %_ZNSt10unique_ptrIN3ue220ComponentAlternationESt14default_deleteIS1_EED2Ev.exit.i, label %_ZNKSt14default_deleteIN3ue220ComponentAlternationEEclEPS1_.exit.i.i

_ZNKSt14default_deleteIN3ue220ComponentAlternationEEclEPS1_.exit.i.i: ; preds = %_ZNSt7__cxx1112basic_stringIcSt11char_traitsIcESaIcEED2Ev.exit.i
  %11 = load ptr, ptr %10, align 8
  %12 = getelementptr inbounds nuw i8, ptr %11, i64 8
  %13 = load ptr, ptr %12, align 8
  tail call void %13(ptr noundef nonnull align 8 dereferenceable(40) %10) #17
  br label %_ZNSt10unique_ptrIN3ue220ComponentAlternationESt14default_deleteIS1_EED2Ev.exit.i

_ZNSt10unique_ptrIN3ue220ComponentAlternationESt14default_deleteIS1_EED2Ev.exit.i: ; preds = %_ZNKSt14default_deleteIN3ue220ComponentAlternationEEclEPS1_.exit.i.i, %_ZNSt7__cxx1112basic_stringIcSt11char_traitsIcESaIcEED2Ev.exit.i
  store ptr null, ptr %9, align 8
  %14 = getelementptr inbounds nuw i8, ptr %0, i64 16
  %15 = load ptr, ptr %14, align 8
  %16 = getelementptr inbounds nuw i8, ptr %0, i64 24
  %17 = load ptr, ptr %16, align 8
  %.not4.i.i.i.i.i = icmp eq ptr %15, %17
  br i1 %.not4.i.i.i.i.i, label %_ZSt8_DestroyIPSt10unique_ptrIN3ue29ComponentESt14default_deleteIS2_EES5_EvT_S7_RSaIT0_E.exit.i.i, label %.lr.ph.i.i.i.i.i

.lr.ph.i.i.i.i.i:                                 ; preds = %_ZNSt10unique_ptrIN3ue220ComponentAlternationESt14default_deleteIS1_EED2Ev.exit.i, %_ZSt8_DestroyISt10unique_ptrIN3ue29ComponentESt14default_deleteIS2_EEEvPT_.exit.i.i.i.i.i
  %.05.i.i.i.i.i = phi ptr [ %22, %_ZSt8_DestroyISt10unique_ptrIN3ue29ComponentESt14default_deleteIS2_EEEvPT_.exit.i.i.i.i.i ], [ %15, %_ZNSt10unique_ptrIN3ue220ComponentAlternationESt14default_deleteIS1_EED2Ev.exit.i ]
  %18 = load ptr, ptr %.05.i.i.i.i.i, align 8
  %.not.i.i.i.i.i.i.i = icmp eq ptr %18, null
  br i1 %.not.i.i.i.i.i.i.i, label %_ZSt8_DestroyISt10unique_ptrIN3ue29ComponentESt14default_deleteIS2_EEEvPT_.exit.i.i.i.i.i, label %_ZNKSt14default_deleteIN3ue29ComponentEEclEPS1_.exit.i.i.i.i.i.i.i

_ZNKSt14default_deleteIN3ue29ComponentEEclEPS1_.exit.i.i.i.i.i.i.i: ; preds = %.lr.ph.i.i.i.i.i
  %19 = load ptr, ptr %18, align 8
  %20 = getelementptr inbounds nuw i8, ptr %19, i64 8
  %21 = load ptr, ptr %20, align 8
  tail call void %21(ptr noundef nonnull align 8 dereferenceable(16) %18) #17
  br label %_ZSt8_DestroyISt10unique_ptrIN3ue29ComponentESt14default_deleteIS2_EEEvPT_.exit.i.i.i.i.i

_ZSt8_DestroyISt10unique_ptrIN3ue29ComponentESt14default_deleteIS2_EEEvPT_.exit.i.i.i.i.i: ; preds = %_ZNKSt14default_deleteIN3ue29ComponentEEclEPS1_.exit.i.i.i.i.i.i.i, %.lr.ph.i.i.i.i.i
  store ptr null, ptr %.05.i.i.i.i.i, align 8
  %22 = getelementptr inbounds nuw i8, ptr %.05.i.i.i.i.i, i64 8
  %.not.i.i.i.i.i = icmp eq ptr %22, %17
  br i1 %.not.i.i.i.i.i, label %_ZSt8_DestroyIPSt10unique_ptrIN3ue29ComponentESt14default_deleteIS2_EES5_EvT_S7_RSaIT0_E.exitthread-pre-split.i.i, label %.lr.ph.i.i.i.i.i, !llvm.loop !5

_ZSt8_DestroyIPSt10unique_ptrIN3ue29ComponentESt14default_deleteIS2_EES5_EvT_S7_RSaIT0_E.exitthread-pre-split.i.i: ; preds = %_ZSt8_DestroyISt10unique_ptrIN3ue29ComponentESt14default_deleteIS2_EEEvPT_.exit.i.i.i.i.i
  %.pr.i.i = load ptr, ptr %14, align 8
  br label %_ZSt8_DestroyIPSt10unique_ptrIN3ue29ComponentESt14default_deleteIS2_EES5_EvT_S7_RSaIT0_E.exit.i.i

_ZSt8_DestroyIPSt10unique_ptrIN3ue29ComponentESt14default_deleteIS2_EES5_EvT_S7_RSaIT0_E.exit.i.i: ; preds = %_ZSt8_DestroyIPSt10unique_ptrIN3ue29ComponentESt14default_deleteIS2_EES5_EvT_S7_RSaIT0_E.exitthread-pre-split.i.i, %_ZNSt10unique_ptrIN3ue220ComponentAlternationESt14default_deleteIS1_EED2Ev.exit.i
  %23 = phi ptr [ %.pr.i.i, %_ZSt8_DestroyIPSt10unique_ptrIN3ue29ComponentESt14default_deleteIS2_EES5_EvT_S7_RSaIT0_E.exitthread-pre-split.i.i ], [ %15, %_ZNSt10unique_ptrIN3ue220ComponentAlternationESt14default_deleteIS1_EED2Ev.exit.i ]
  %.not.i.i.i.i = icmp eq ptr %23, null
  br i1 %.not.i.i.i.i, label %_ZN3ue217ComponentSequenceD2Ev.exit, label %24

24:                                               ; preds = %_ZSt8_DestroyIPSt10unique_ptrIN3ue29ComponentESt14default_deleteIS2_EES5_EvT_S7_RSaIT0_E.exit.i.i
  tail call void @_ZdlPv(ptr noundef nonnull %23) #16
  br label %_ZN3ue217ComponentSequenceD2Ev.exit

_ZN3ue217ComponentSequenceD2Ev.exit:              ; preds = %_ZSt8_DestroyIPSt10unique_ptrIN3ue29ComponentESt14default_deleteIS2_EES5_EvT_S7_RSaIT0_E.exit.i.i, %24
  tail call void @_ZN3ue29ComponentD2Ev(ptr noundef nonnull align 8 dereferenceable(88) %0) #17
  tail call void @_ZdlPv(ptr noundef nonnull %0) #16
  ret void
}